target datalayout = "e-m:e-p270:32:32-p271:32:32-p272:64:64-i64:64-i128:128-f80:128-n8:16:32:64-S128"
target triple = "x86_64-pc-linux-gnu"

%struct.state = type { i32, i32, i32, i32, i8, i8, [2000 x i64], [2000 x i8], [256 x %struct.ttinfo], [512 x i8], [50 x %struct.lsinfo], i32 }
%struct.ttinfo = type { i32, i8, i32, i8, i8 }
%struct.lsinfo = type { i64, i64 }
%struct.pg_tz = type { [256 x i8], %struct.state }

; Function Attrs: nounwind uwtable
define dso_local zeroext i1 @pg_interpret_timezone_abbrev(ptr noundef %0, ptr noundef %1, ptr noundef %2, ptr noundef %3, ptr noundef %4) #0 {
  %6 = alloca i1, align 1
  %7 = alloca ptr, align 8
  %8 = alloca ptr, align 8
  %9 = alloca ptr, align 8
  %10 = alloca ptr, align 8
  %11 = alloca ptr, align 8
  %12 = alloca ptr, align 8
  %13 = alloca ptr, align 8
  %14 = alloca ptr, align 8
  %15 = alloca i32, align 4
  %16 = alloca i32, align 4
  %17 = alloca i32, align 4
  %18 = alloca i64, align 8
  %19 = alloca i32, align 4
  %20 = alloca i32, align 4
  %21 = alloca i32, align 4
  %22 = alloca i32, align 4
  store ptr %0, ptr %7, align 8
  store ptr %1, ptr %8, align 8
  store ptr %2, ptr %9, align 8
  store ptr %3, ptr %10, align 8
  store ptr %4, ptr %11, align 8
  call void @llvm.lifetime.start.p0(i64 8, ptr %12) #8
  call void @llvm.lifetime.start.p0(i64 8, ptr %13) #8
  call void @llvm.lifetime.start.p0(i64 8, ptr %14) #8
  call void @llvm.lifetime.start.p0(i64 4, ptr %15) #8
  call void @llvm.lifetime.start.p0(i64 4, ptr %16) #8
  call void @llvm.lifetime.start.p0(i64 4, ptr %17) #8
  call void @llvm.lifetime.start.p0(i64 8, ptr %18) #8
  %23 = load ptr, ptr %8, align 8
  %24 = load i64, ptr %23, align 8
  store i64 %24, ptr %18, align 8
  %25 = load ptr, ptr %11, align 8
  %26 = getelementptr inbounds nuw %struct.pg_tz, ptr %25, i32 0, i32 1
  store ptr %26, ptr %12, align 8
  %27 = load ptr, ptr %12, align 8
  %28 = getelementptr inbounds nuw %struct.state, ptr %27, i32 0, i32 9
  %29 = getelementptr inbounds [512 x i8], ptr %28, i64 0, i64 0
  store ptr %29, ptr %13, align 8
  store i32 0, ptr %15, align 4
  br label %30

30:                                               ; preds = %57, %5
  %31 = load i32, ptr %15, align 4
  %32 = load ptr, ptr %12, align 8
  %33 = getelementptr inbounds nuw %struct.state, ptr %32, i32 0, i32 3
  %34 = load i32, ptr %33, align 4
  %35 = icmp slt i32 %31, %34
  br i1 %35, label %36, label %60

36:                                               ; preds = %30
  %37 = load ptr, ptr %7, align 8
  %38 = load ptr, ptr %13, align 8
  %39 = load i32, ptr %15, align 4
  %40 = sext i32 %39 to i64
  %41 = getelementptr inbounds i8, ptr %38, i64 %40
  %42 = call i32 @strcmp(ptr noundef %37, ptr noundef %41) #11
  %43 = icmp eq i32 %42, 0
  br i1 %43, label %44, label %45

44:                                               ; preds = %36
  br label %60

45:                                               ; preds = %36
  br label %46

46:                                               ; preds = %54, %45
  %47 = load ptr, ptr %13, align 8
  %48 = load i32, ptr %15, align 4
  %49 = sext i32 %48 to i64
  %50 = getelementptr inbounds i8, ptr %47, i64 %49
  %51 = load i8, ptr %50, align 1
  %52 = sext i8 %51 to i32
  %53 = icmp ne i32 %52, 0
  br i1 %53, label %54, label %57

54:                                               ; preds = %46
  %55 = load i32, ptr %15, align 4
  %56 = add i32 %55, 1
  store i32 %56, ptr %15, align 4
  br label %46, !llvm.loop !37

57:                                               ; preds = %46
  %58 = load i32, ptr %15, align 4
  %59 = add i32 %58, 1
  store i32 %59, ptr %15, align 4
  br label %30, !llvm.loop !38

60:                                               ; preds = %44, %30
  %61 = load i32, ptr %15, align 4
  %62 = load ptr, ptr %12, align 8
  %63 = getelementptr inbounds nuw %struct.state, ptr %62, i32 0, i32 3
  %64 = load i32, ptr %63, align 4
  %65 = icmp sge i32 %61, %64
  br i1 %65, label %66, label %67

66:                                               ; preds = %60
  store i1 false, ptr %6, align 1
  store i32 1, ptr %19, align 4
  br label %199

67:                                               ; preds = %60
  call void @llvm.lifetime.start.p0(i64 4, ptr %20) #8
  store i32 0, ptr %20, align 4
  call void @llvm.lifetime.start.p0(i64 4, ptr %21) #8
  %68 = load ptr, ptr %12, align 8
  %69 = getelementptr inbounds nuw %struct.state, ptr %68, i32 0, i32 1
  %70 = load i32, ptr %69, align 4
  store i32 %70, ptr %21, align 4
  br label %71

71:                                               ; preds = %93, %67
  %72 = load i32, ptr %20, align 4
  %73 = load i32, ptr %21, align 4
  %74 = icmp slt i32 %72, %73
  br i1 %74, label %75, label %94

75:                                               ; preds = %71
  call void @llvm.lifetime.start.p0(i64 4, ptr %22) #8
  %76 = load i32, ptr %20, align 4
  %77 = load i32, ptr %21, align 4
  %78 = add i32 %76, %77
  %79 = ashr i32 %78, 1
  store i32 %79, ptr %22, align 4
  %80 = load i64, ptr %18, align 8
  %81 = load ptr, ptr %12, align 8
  %82 = getelementptr inbounds nuw %struct.state, ptr %81, i32 0, i32 6
  %83 = load i32, ptr %22, align 4
  %84 = sext i32 %83 to i64
  %85 = getelementptr inbounds [2000 x i64], ptr %82, i64 0, i64 %84
  %86 = load i64, ptr %85, align 8
  %87 = icmp slt i64 %80, %86
  br i1 %87, label %88, label %90

88:                                               ; preds = %75
  %89 = load i32, ptr %22, align 4
  store i32 %89, ptr %21, align 4
  br label %93

90:                                               ; preds = %75
  %91 = load i32, ptr %22, align 4
  %92 = add i32 %91, 1
  store i32 %92, ptr %20, align 4
  br label %93

93:                                               ; preds = %90, %88
  call void @llvm.lifetime.end.p0(i64 4, ptr %22) #8
  br label %71, !llvm.loop !39

94:                                               ; preds = %71
  %95 = load i32, ptr %20, align 4
  store i32 %95, ptr %16, align 4
  call void @llvm.lifetime.end.p0(i64 4, ptr %21) #8
  call void @llvm.lifetime.end.p0(i64 4, ptr %20) #8
  %96 = load i32, ptr %16, align 4
  %97 = sub i32 %96, 1
  store i32 %97, ptr %17, align 4
  br label %98

98:                                               ; preds = %130, %94
  %99 = load i32, ptr %17, align 4
  %100 = icmp sge i32 %99, 0
  br i1 %100, label %101, label %133

101:                                              ; preds = %98
  %102 = load ptr, ptr %12, align 8
  %103 = getelementptr inbounds nuw %struct.state, ptr %102, i32 0, i32 8
  %104 = load ptr, ptr %12, align 8
  %105 = getelementptr inbounds nuw %struct.state, ptr %104, i32 0, i32 7
  %106 = load i32, ptr %17, align 4
  %107 = sext i32 %106 to i64
  %108 = getelementptr inbounds [2000 x i8], ptr %105, i64 0, i64 %107
  %109 = load i8, ptr %108, align 1
  %110 = zext i8 %109 to i64
  %111 = getelementptr inbounds nuw [256 x %struct.ttinfo], ptr %103, i64 0, i64 %110
  store ptr %111, ptr %14, align 8
  %112 = load ptr, ptr %14, align 8
  %113 = getelementptr inbounds nuw %struct.ttinfo, ptr %112, i32 0, i32 2
  %114 = load i32, ptr %113, align 4
  %115 = load i32, ptr %15, align 4
  %116 = icmp eq i32 %114, %115
  br i1 %116, label %117, label %129

117:                                              ; preds = %101
  %118 = load ptr, ptr %14, align 8
  %119 = getelementptr inbounds nuw %struct.ttinfo, ptr %118, i32 0, i32 0
  %120 = load i32, ptr %119, align 4
  %121 = sext i32 %120 to i64
  %122 = load ptr, ptr %9, align 8
  store i64 %121, ptr %122, align 8
  %123 = load ptr, ptr %14, align 8
  %124 = getelementptr inbounds nuw %struct.ttinfo, ptr %123, i32 0, i32 1
  %125 = load i8, ptr %124, align 4, !range !4, !noundef !5
  %126 = trunc i8 %125 to i1
  %127 = zext i1 %126 to i32
  %128 = load ptr, ptr %10, align 8
  store i32 %127, ptr %128, align 4
  store i1 true, ptr %6, align 1
  store i32 1, ptr %19, align 4
  br label %199

129:                                              ; preds = %101
  br label %130

130:                                              ; preds = %129
  %131 = load i32, ptr %17, align 4
  %132 = add i32 %131, -1
  store i32 %132, ptr %17, align 4
  br label %98, !llvm.loop !40

133:                                              ; preds = %98
  %134 = load ptr, ptr %12, align 8
  %135 = getelementptr inbounds nuw %struct.state, ptr %134, i32 0, i32 8
  %136 = load ptr, ptr %12, align 8
  %137 = getelementptr inbounds nuw %struct.state, ptr %136, i32 0, i32 11
  %138 = load i32, ptr %137, align 8
  %139 = sext i32 %138 to i64
  %140 = getelementptr inbounds [256 x %struct.ttinfo], ptr %135, i64 0, i64 %139
  store ptr %140, ptr %14, align 8
  %141 = load ptr, ptr %14, align 8
  %142 = getelementptr inbounds nuw %struct.ttinfo, ptr %141, i32 0, i32 2
  %143 = load i32, ptr %142, align 4
  %144 = load i32, ptr %15, align 4
  %145 = icmp eq i32 %143, %144
  br i1 %145, label %146, label %158

146:                                              ; preds = %133
  %147 = load ptr, ptr %14, align 8
  %148 = getelementptr inbounds nuw %struct.ttinfo, ptr %147, i32 0, i32 0
  %149 = load i32, ptr %148, align 4
  %150 = sext i32 %149 to i64
  %151 = load ptr, ptr %9, align 8
  store i64 %150, ptr %151, align 8
  %152 = load ptr, ptr %14, align 8
  %153 = getelementptr inbounds nuw %struct.ttinfo, ptr %152, i32 0, i32 1
  %154 = load i8, ptr %153, align 4, !range !4, !noundef !5
  %155 = trunc i8 %154 to i1
  %156 = zext i1 %155 to i32
  %157 = load ptr, ptr %10, align 8
  store i32 %156, ptr %157, align 4
  store i1 true, ptr %6, align 1
  store i32 1, ptr %19, align 4
  br label %199

158:                                              ; preds = %133
  %159 = load i32, ptr %16, align 4
  store i32 %159, ptr %17, align 4
  br label %160

160:                                              ; preds = %195, %158
  %161 = load i32, ptr %17, align 4
  %162 = load ptr, ptr %12, align 8
  %163 = getelementptr inbounds nuw %struct.state, ptr %162, i32 0, i32 1
  %164 = load i32, ptr %163, align 4
  %165 = icmp slt i32 %161, %164
  br i1 %165, label %166, label %198

166:                                              ; preds = %160
  %167 = load ptr, ptr %12, align 8
  %168 = getelementptr inbounds nuw %struct.state, ptr %167, i32 0, i32 8
  %169 = load ptr, ptr %12, align 8
  %170 = getelementptr inbounds nuw %struct.state, ptr %169, i32 0, i32 7
  %171 = load i32, ptr %17, align 4
  %172 = sext i32 %171 to i64
  %173 = getelementptr inbounds [2000 x i8], ptr %170, i64 0, i64 %172
  %174 = load i8, ptr %173, align 1
  %175 = zext i8 %174 to i64
  %176 = getelementptr inbounds nuw [256 x %struct.ttinfo], ptr %168, i64 0, i64 %175
  store ptr %176, ptr %14, align 8
  %177 = load ptr, ptr %14, align 8
  %178 = getelementptr inbounds nuw %struct.ttinfo, ptr %177, i32 0, i32 2
  %179 = load i32, ptr %178, align 4
  %180 = load i32, ptr %15, align 4
  %181 = icmp eq i32 %179, %180
  br i1 %181, label %182, label %194

182:                                              ; preds = %166
  %183 = load ptr, ptr %14, align 8
  %184 = getelementptr inbounds nuw %struct.ttinfo, ptr %183, i32 0, i32 0
  %185 = load i32, ptr %184, align 4
  %186 = sext i32 %185 to i64
  %187 = load ptr, ptr %9, align 8
  store i64 %186, ptr %187, align 8
  %188 = load ptr, ptr %14, align 8
  %189 = getelementptr inbounds nuw %struct.ttinfo, ptr %188, i32 0, i32 1
  %190 = load i8, ptr %189, align 4, !range !4, !noundef !5
  %191 = trunc i8 %190 to i1
  %192 = zext i1 %191 to i32
  %193 = load ptr, ptr %10, align 8
  store i32 %192, ptr %193, align 4
  store i1 true, ptr %6, align 1
  store i32 1, ptr %19, align 4
  br label %199

194:                                              ; preds = %166
  br label %195

195:                                              ; preds = %194
  %196 = load i32, ptr %17, align 4
  %197 = add i32 %196, 1
  store i32 %197, ptr %17, align 4
  br label %160, !llvm.loop !41

198:                                              ; preds = %160
  store i1 false, ptr %6, align 1
  store i32 1, ptr %19, align 4
  br label %199

199:                                              ; preds = %198, %182, %146, %117, %66
  call void @llvm.lifetime.end.p0(i64 8, ptr %18) #8
  call void @llvm.lifetime.end.p0(i64 4, ptr %17) #8
  call void @llvm.lifetime.end.p0(i64 4, ptr %16) #8
  call void @llvm.lifetime.end.p0(i64 4, ptr %15) #8
  call void @llvm.lifetime.end.p0(i64 8, ptr %14) #8
  call void @llvm.lifetime.end.p0(i64 8, ptr %13) #8
  call void @llvm.lifetime.end.p0(i64 8, ptr %12) #8
  %200 = load i1, ptr %6, align 1
  ret i1 %200
}