; Function Attrs: nofree nounwind memory(argmem: readwrite) uwtable
define dso_local noundef zeroext i1 @pg_interpret_timezone_abbrev(ptr noundef readonly captures(none) %0, ptr noundef readonly captures(none) %1, ptr noundef writeonly captures(none) %2, ptr noundef writeonly captures(none) %3, ptr noundef readonly captures(none) %4) local_unnamed_addr #11 {
  %6 = load i64, ptr %1, align 8
  %7 = getelementptr inbounds nuw i8, ptr %4, i64 22376
  %8 = getelementptr inbounds nuw i8, ptr %4, i64 268
  %9 = load i32, ptr %8, align 4
  %10 = icmp sgt i32 %9, 0
  br i1 %10, label %.lr.ph, label %.loopexit

.lr.ph:                                           ; preds = %5, %19
  %.06371 = phi i32 [ %18, %19 ], [ 0, %5 ]
  %11 = sext i32 %.06371 to i64
  %12 = getelementptr inbounds i8, ptr %7, i64 %11
  %13 = tail call i32 @strcmp(ptr noundef nonnull dereferenceable(1) %0, ptr noundef nonnull dereferenceable(1) %12) #21
  %14 = icmp eq i32 %13, 0
  br i1 %14, label %21, label %.preheader67

.preheader67:                                     ; preds = %.lr.ph, %.preheader67
  %.164 = phi i32 [ %18, %.preheader67 ], [ %.06371, %.lr.ph ]
  %15 = sext i32 %.164 to i64
  %16 = getelementptr inbounds i8, ptr %7, i64 %15
  %17 = load i8, ptr %16, align 1
  %.not = icmp eq i8 %17, 0
  %18 = add i32 %.164, 1
  br i1 %.not, label %19, label %.preheader67, !llvm.loop !40

19:                                               ; preds = %.preheader67
  %20 = icmp slt i32 %18, %9
  br i1 %20, label %.lr.ph, label %.loopexit, !llvm.loop !41

21:                                               ; preds = %.lr.ph
  %22 = getelementptr inbounds nuw i8, ptr %4, i64 260
  %23 = load i32, ptr %22, align 4
  %24 = icmp sgt i32 %23, 0
  br i1 %24, label %.lr.ph74, label %.preheader66

.lr.ph74:                                         ; preds = %21
  %25 = getelementptr inbounds nuw i8, ptr %4, i64 280
  br label %29

.preheader66:                                     ; preds = %29, %21
  %.059.lcssa = phi i32 [ 0, %21 ], [ %.160, %29 ]
  %26 = getelementptr inbounds nuw i8, ptr %4, i64 18280
  %27 = getelementptr inbounds nuw i8, ptr %4, i64 16280
  %28 = zext i32 %.059.lcssa to i64
  br label %38

29:                                               ; preds = %.lr.ph74, %29
  %.05873 = phi i32 [ %23, %.lr.ph74 ], [ %.1, %29 ]
  %.05972 = phi i32 [ 0, %.lr.ph74 ], [ %.160, %29 ]
  %30 = add i32 %.05873, %.05972
  %31 = ashr i32 %30, 1
  %32 = sext i32 %31 to i64
  %33 = getelementptr inbounds [2000 x i64], ptr %25, i64 0, i64 %32
  %34 = load i64, ptr %33, align 8
  %35 = icmp slt i64 %6, %34
  %36 = add nsw i32 %31, 1
  %.160 = select i1 %35, i32 %.05972, i32 %36
  %.1 = select i1 %35, i32 %31, i32 %.05873
  %37 = icmp slt i32 %.160, %.1
  br i1 %37, label %29, label %.preheader66, !llvm.loop !42

38:                                               ; preds = %.preheader66, %41
  %indvars.iv = phi i64 [ %28, %.preheader66 ], [ %42, %41 ]
  %39 = trunc nuw i64 %indvars.iv to i32
  %40 = icmp sgt i32 %39, 0
  br i1 %40, label %41, label %50

41:                                               ; preds = %38
  %42 = add nsw i64 %indvars.iv, -1
  %43 = getelementptr inbounds nuw [2000 x i8], ptr %27, i64 0, i64 %42
  %44 = load i8, ptr %43, align 1
  %45 = zext i8 %44 to i64
  %46 = getelementptr inbounds nuw [256 x %struct.ttinfo], ptr %26, i64 0, i64 %45
  %47 = getelementptr inbounds nuw i8, ptr %46, i64 8
  %48 = load i32, ptr %47, align 4
  %49 = icmp eq i32 %48, %.06371
  br i1 %49, label %.loopexit.sink.split, label %38, !llvm.loop !43

50:                                               ; preds = %38
  %51 = getelementptr inbounds nuw i8, ptr %4, i64 23688
  %52 = load i32, ptr %51, align 8
  %53 = sext i32 %52 to i64
  %54 = getelementptr inbounds [256 x %struct.ttinfo], ptr %26, i64 0, i64 %53
  %55 = getelementptr inbounds nuw i8, ptr %54, i64 8
  %56 = load i32, ptr %55, align 4
  %57 = icmp eq i32 %56, %.06371
  br i1 %57, label %.loopexit.sink.split, label %.preheader

.preheader:                                       ; preds = %50
  %58 = icmp slt i32 %.059.lcssa, %23
  br i1 %58, label %.lr.ph76, label %.loopexit

.lr.ph76:                                         ; preds = %.preheader
  %59 = sext i32 %.059.lcssa to i64
  br label %61

60:                                               ; preds = %61
  %indvars.iv.next84 = add nsw i64 %indvars.iv83, 1
  %lftr.wideiv = trunc i64 %indvars.iv.next84 to i32
  %exitcond.not = icmp eq i32 %23, %lftr.wideiv
  br i1 %exitcond.not, label %.loopexit, label %61, !llvm.loop !44

61:                                               ; preds = %.lr.ph76, %60
  %indvars.iv83 = phi i64 [ %59, %.lr.ph76 ], [ %indvars.iv.next84, %60 ]
  %62 = getelementptr inbounds [2000 x i8], ptr %27, i64 0, i64 %indvars.iv83
  %63 = load i8, ptr %62, align 1
  %64 = zext i8 %63 to i64
  %65 = getelementptr inbounds nuw [256 x %struct.ttinfo], ptr %26, i64 0, i64 %64
  %66 = getelementptr inbounds nuw i8, ptr %65, i64 8
  %67 = load i32, ptr %66, align 4
  %68 = icmp eq i32 %67, %.06371
  br i1 %68, label %.loopexit.sink.split, label %60

.loopexit.sink.split:                             ; preds = %41, %61, %50
  %.lcssa.sink = phi ptr [ %54, %50 ], [ %65, %61 ], [ %46, %41 ]
  %.sink92 = load i32, ptr %.lcssa.sink, align 4
  %69 = sext i32 %.sink92 to i64
  store i64 %69, ptr %2, align 8
  %70 = getelementptr inbounds nuw i8, ptr %.lcssa.sink, i64 4
  %71 = load i8, ptr %70, align 4, !range !22, !noundef !23
  %72 = zext nneg i8 %71 to i32
  store i32 %72, ptr %3, align 4
  br label %.loopexit

.loopexit:                                        ; preds = %19, %60, %.loopexit.sink.split, %5, %.preheader
  %.0 = phi i1 [ false, %.preheader ], [ false, %5 ], [ true, %.loopexit.sink.split ], [ false, %60 ], [ false, %19 ]
  ret i1 %.0
}